target datalayout = "e-m:e-p270:32:32-p271:32:32-p272:64:64-i64:64-i128:128-f80:128-n8:16:32:64-S128"
target triple = "x86_64-pc-linux-gnu"

%struct.SDL_Surface = type { i32, i32, i32, i32, i32, ptr, i32, ptr, i32, i32, ptr, i32, ptr, i32, ptr, i32, %struct.SDL_Rect, %struct.SDL_BlitMap }
%struct.SDL_Rect = type { i32, i32, i32, i32 }
%struct.SDL_BlitMap = type { i32, ptr, ptr, %struct.SDL_BlitInfo, i32, i32 }
%struct.SDL_BlitInfo = type { ptr, ptr, i32, i32, i32, i32, ptr, ptr, i32, i32, i32, i32, ptr, ptr, ptr, ptr, ptr, ptr, i32, i32, i8, i8, i8, i8 }
%struct.SDL_PixelFormatDetails = type { i32, i8, i8, [2 x i8], i32, i32, i32, i32, i8, i8, i8, i8, i8, i8, i8, i8 }
%struct.SDL_Point = type { i32, i32 }

@.str.3 = private unnamed_addr constant [50 x i8] c"SDL_BlendLines(): Passed NULL destination surface\00", align 1
@.str.4 = private unnamed_addr constant [45 x i8] c"SDL_BlendLines(): Unsupported surface format\00", align 1

; Function Attrs: nounwind uwtable
define internal ptr @SDL_CalculateBlendLineFunc(ptr noundef %0) #0 {
  %2 = alloca ptr, align 8
  %3 = alloca ptr, align 8
  store ptr %0, ptr %3, align 8
  %4 = load ptr, ptr %3, align 8
  %5 = getelementptr inbounds nuw %struct.SDL_PixelFormatDetails, ptr %4, i32 0, i32 2
  %6 = load i8, ptr %5, align 1
  %7 = zext i8 %6 to i32
  switch i32 %7, label %40 [
    i32 2, label %8
    i32 4, label %21
  ]

8:                                                ; preds = %1
  %9 = load ptr, ptr %3, align 8
  %10 = getelementptr inbounds nuw %struct.SDL_PixelFormatDetails, ptr %9, i32 0, i32 4
  %11 = load i32, ptr %10, align 4
  %12 = icmp eq i32 %11, 31744
  br i1 %12, label %13, label %14

13:                                               ; preds = %8
  store ptr @SDL_BlendLine_RGB555, ptr %2, align 8
  br label %41

14:                                               ; preds = %8
  %15 = load ptr, ptr %3, align 8
  %16 = getelementptr inbounds nuw %struct.SDL_PixelFormatDetails, ptr %15, i32 0, i32 4
  %17 = load i32, ptr %16, align 4
  %18 = icmp eq i32 %17, 63488
  br i1 %18, label %19, label %20

19:                                               ; preds = %14
  store ptr @SDL_BlendLine_RGB565, ptr %2, align 8
  br label %41

20:                                               ; preds = %14
  store ptr @SDL_BlendLine_RGB2, ptr %2, align 8
  br label %41

21:                                               ; preds = %1
  %22 = load ptr, ptr %3, align 8
  %23 = getelementptr inbounds nuw %struct.SDL_PixelFormatDetails, ptr %22, i32 0, i32 4
  %24 = load i32, ptr %23, align 4
  %25 = icmp eq i32 %24, 16711680
  br i1 %25, label %26, label %33

26:                                               ; preds = %21
  %27 = load ptr, ptr %3, align 8
  %28 = getelementptr inbounds nuw %struct.SDL_PixelFormatDetails, ptr %27, i32 0, i32 7
  %29 = load i32, ptr %28, align 4
  %30 = icmp ne i32 %29, 0
  br i1 %30, label %31, label %32

31:                                               ; preds = %26
  store ptr @SDL_BlendLine_ARGB8888, ptr %2, align 8
  br label %41

32:                                               ; preds = %26
  store ptr @SDL_BlendLine_XRGB8888, ptr %2, align 8
  br label %41

33:                                               ; preds = %21
  %34 = load ptr, ptr %3, align 8
  %35 = getelementptr inbounds nuw %struct.SDL_PixelFormatDetails, ptr %34, i32 0, i32 7
  %36 = load i32, ptr %35, align 4
  %37 = icmp ne i32 %36, 0
  br i1 %37, label %38, label %39

38:                                               ; preds = %33
  store ptr @SDL_BlendLine_RGBA4, ptr %2, align 8
  br label %41

39:                                               ; preds = %33
  store ptr @SDL_BlendLine_RGB4, ptr %2, align 8
  br label %41

40:                                               ; preds = %1
  store ptr null, ptr %2, align 8
  br label %41

41:                                               ; preds = %40, %39, %38, %32, %31, %20, %19, %13
  %42 = load ptr, ptr %2, align 8
  ret ptr %42
}

; Function Attrs: nounwind uwtable
define hidden zeroext i1 @SDL_BlendLines(ptr noundef %0, ptr noundef %1, i32 noundef %2, i32 noundef %3, i8 noundef zeroext %4, i8 noundef zeroext %5, i8 noundef zeroext %6, i8 noundef zeroext %7) #0 {
  %9 = alloca i1, align 1
  %10 = alloca ptr, align 8
  %11 = alloca ptr, align 8
  %12 = alloca i32, align 4
  %13 = alloca i32, align 4
  %14 = alloca i8, align 1
  %15 = alloca i8, align 1
  %16 = alloca i8, align 1
  %17 = alloca i8, align 1
  %18 = alloca i32, align 4
  %19 = alloca i32, align 4
  %20 = alloca i32, align 4
  %21 = alloca i32, align 4
  %22 = alloca i32, align 4
  %23 = alloca i8, align 1
  %24 = alloca ptr, align 8
  %25 = alloca i32, align 4
  store ptr %0, ptr %10, align 8
  store ptr %1, ptr %11, align 8
  store i32 %2, ptr %12, align 4
  store i32 %3, ptr %13, align 4
  store i8 %4, ptr %14, align 1
  store i8 %5, ptr %15, align 1
  store i8 %6, ptr %16, align 1
  store i8 %7, ptr %17, align 1
  call void @llvm.lifetime.start.p0(i64 4, ptr %18) #3
  call void @llvm.lifetime.start.p0(i64 4, ptr %19) #3
  call void @llvm.lifetime.start.p0(i64 4, ptr %20) #3
  call void @llvm.lifetime.start.p0(i64 4, ptr %21) #3
  call void @llvm.lifetime.start.p0(i64 4, ptr %22) #3
  call void @llvm.lifetime.start.p0(i64 1, ptr %23) #3
  call void @llvm.lifetime.start.p0(i64 8, ptr %24) #3
  %26 = load ptr, ptr %10, align 8
  %27 = call zeroext i1 @SDL_SurfaceValid(ptr noundef %26)
  br i1 %27, label %30, label %28

28:                                               ; preds = %8
  %29 = call zeroext i1 (ptr, ...) @SDL_SetError_REAL(ptr noundef @.str.3)
  store i1 %29, ptr %9, align 1
  store i32 1, ptr %25, align 4
  br label %161

30:                                               ; preds = %8
  %31 = load ptr, ptr %10, align 8
  %32 = getelementptr inbounds nuw %struct.SDL_Surface, ptr %31, i32 0, i32 10
  %33 = load ptr, ptr %32, align 8
  %34 = call ptr @SDL_CalculateBlendLineFunc(ptr noundef %33)
  store ptr %34, ptr %24, align 8
  %35 = load ptr, ptr %24, align 8
  %36 = icmp ne ptr %35, null
  br i1 %36, label %39, label %37

37:                                               ; preds = %30
  %38 = call zeroext i1 (ptr, ...) @SDL_SetError_REAL(ptr noundef @.str.4)
  store i1 %38, ptr %9, align 1
  store i32 1, ptr %25, align 4
  br label %161

39:                                               ; preds = %30
  store i32 1, ptr %18, align 4
  br label %40

40:                                               ; preds = %109, %39
  %41 = load i32, ptr %18, align 4
  %42 = load i32, ptr %12, align 4
  %43 = icmp slt i32 %41, %42
  br i1 %43, label %44, label %112

44:                                               ; preds = %40
  %45 = load ptr, ptr %11, align 8
  %46 = load i32, ptr %18, align 4
  %47 = sub nsw i32 %46, 1
  %48 = sext i32 %47 to i64
  %49 = getelementptr inbounds %struct.SDL_Point, ptr %45, i64 %48
  %50 = getelementptr inbounds nuw %struct.SDL_Point, ptr %49, i32 0, i32 0
  %51 = load i32, ptr %50, align 4
  store i32 %51, ptr %19, align 4
  %52 = load ptr, ptr %11, align 8
  %53 = load i32, ptr %18, align 4
  %54 = sub nsw i32 %53, 1
  %55 = sext i32 %54 to i64
  %56 = getelementptr inbounds %struct.SDL_Point, ptr %52, i64 %55
  %57 = getelementptr inbounds nuw %struct.SDL_Point, ptr %56, i32 0, i32 1
  %58 = load i32, ptr %57, align 4
  store i32 %58, ptr %20, align 4
  %59 = load ptr, ptr %11, align 8
  %60 = load i32, ptr %18, align 4
  %61 = sext i32 %60 to i64
  %62 = getelementptr inbounds %struct.SDL_Point, ptr %59, i64 %61
  %63 = getelementptr inbounds nuw %struct.SDL_Point, ptr %62, i32 0, i32 0
  %64 = load i32, ptr %63, align 4
  store i32 %64, ptr %21, align 4
  %65 = load ptr, ptr %11, align 8
  %66 = load i32, ptr %18, align 4
  %67 = sext i32 %66 to i64
  %68 = getelementptr inbounds %struct.SDL_Point, ptr %65, i64 %67
  %69 = getelementptr inbounds nuw %struct.SDL_Point, ptr %68, i32 0, i32 1
  %70 = load i32, ptr %69, align 4
  store i32 %70, ptr %22, align 4
  %71 = load ptr, ptr %10, align 8
  %72 = getelementptr inbounds nuw %struct.SDL_Surface, ptr %71, i32 0, i32 16
  %73 = call zeroext i1 @SDL_GetRectAndLineIntersection_REAL(ptr noundef %72, ptr noundef %19, ptr noundef %20, ptr noundef %21, ptr noundef %22)
  br i1 %73, label %75, label %74

74:                                               ; preds = %44
  br label %109

75:                                               ; preds = %44
  %76 = load i32, ptr %21, align 4
  %77 = load ptr, ptr %11, align 8
  %78 = load i32, ptr %18, align 4
  %79 = sext i32 %78 to i64
  %80 = getelementptr inbounds %struct.SDL_Point, ptr %77, i64 %79
  %81 = getelementptr inbounds nuw %struct.SDL_Point, ptr %80, i32 0, i32 0
  %82 = load i32, ptr %81, align 4
  %83 = icmp ne i32 %76, %82
  br i1 %83, label %93, label %84

84:                                               ; preds = %75
  %85 = load i32, ptr %22, align 4
  %86 = load ptr, ptr %11, align 8
  %87 = load i32, ptr %18, align 4
  %88 = sext i32 %87 to i64
  %89 = getelementptr inbounds %struct.SDL_Point, ptr %86, i64 %88
  %90 = getelementptr inbounds nuw %struct.SDL_Point, ptr %89, i32 0, i32 1
  %91 = load i32, ptr %90, align 4
  %92 = icmp ne i32 %85, %91
  br label %93

93:                                               ; preds = %84, %75
  %94 = phi i1 [ true, %75 ], [ %92, %84 ]
  %95 = zext i1 %94 to i8
  store i8 %95, ptr %23, align 1
  %96 = load ptr, ptr %24, align 8
  %97 = load ptr, ptr %10, align 8
  %98 = load i32, ptr %19, align 4
  %99 = load i32, ptr %20, align 4
  %100 = load i32, ptr %21, align 4
  %101 = load i32, ptr %22, align 4
  %102 = load i32, ptr %13, align 4
  %103 = load i8, ptr %14, align 1
  %104 = load i8, ptr %15, align 1
  %105 = load i8, ptr %16, align 1
  %106 = load i8, ptr %17, align 1
  %107 = load i8, ptr %23, align 1, !range !3, !noundef !4
  %108 = trunc i8 %107 to i1
  call void %96(ptr noundef %97, i32 noundef %98, i32 noundef %99, i32 noundef %100, i32 noundef %101, i32 noundef %102, i8 noundef zeroext %103, i8 noundef zeroext %104, i8 noundef zeroext %105, i8 noundef zeroext %106, i1 noundef zeroext %108)
  br label %109

109:                                              ; preds = %93, %74
  %110 = load i32, ptr %18, align 4
  %111 = add nsw i32 %110, 1
  store i32 %111, ptr %18, align 4
  br label %40, !llvm.loop !5

112:                                              ; preds = %40
  %113 = load ptr, ptr %11, align 8
  %114 = getelementptr inbounds %struct.SDL_Point, ptr %113, i64 0
  %115 = getelementptr inbounds nuw %struct.SDL_Point, ptr %114, i32 0, i32 0
  %116 = load i32, ptr %115, align 4
  %117 = load ptr, ptr %11, align 8
  %118 = load i32, ptr %12, align 4
  %119 = sub nsw i32 %118, 1
  %120 = sext i32 %119 to i64
  %121 = getelementptr inbounds %struct.SDL_Point, ptr %117, i64 %120
  %122 = getelementptr inbounds nuw %struct.SDL_Point, ptr %121, i32 0, i32 0
  %123 = load i32, ptr %122, align 4
  %124 = icmp ne i32 %116, %123
  br i1 %124, label %138, label %125

125:                                              ; preds = %112
  %126 = load ptr, ptr %11, align 8
  %127 = getelementptr inbounds %struct.SDL_Point, ptr %126, i64 0
  %128 = getelementptr inbounds nuw %struct.SDL_Point, ptr %127, i32 0, i32 1
  %129 = load i32, ptr %128, align 4
  %130 = load ptr, ptr %11, align 8
  %131 = load i32, ptr %12, align 4
  %132 = sub nsw i32 %131, 1
  %133 = sext i32 %132 to i64
  %134 = getelementptr inbounds %struct.SDL_Point, ptr %130, i64 %133
  %135 = getelementptr inbounds nuw %struct.SDL_Point, ptr %134, i32 0, i32 1
  %136 = load i32, ptr %135, align 4
  %137 = icmp ne i32 %129, %136
  br i1 %137, label %138, label %160

138:                                              ; preds = %125, %112
  %139 = load ptr, ptr %10, align 8
  %140 = load ptr, ptr %11, align 8
  %141 = load i32, ptr %12, align 4
  %142 = sub nsw i32 %141, 1
  %143 = sext i32 %142 to i64
  %144 = getelementptr inbounds %struct.SDL_Point, ptr %140, i64 %143
  %145 = getelementptr inbounds nuw %struct.SDL_Point, ptr %144, i32 0, i32 0
  %146 = load i32, ptr %145, align 4
  %147 = load ptr, ptr %11, align 8
  %148 = load i32, ptr %12, align 4
  %149 = sub nsw i32 %148, 1
  %150 = sext i32 %149 to i64
  %151 = getelementptr inbounds %struct.SDL_Point, ptr %147, i64 %150
  %152 = getelementptr inbounds nuw %struct.SDL_Point, ptr %151, i32 0, i32 1
  %153 = load i32, ptr %152, align 4
  %154 = load i32, ptr %13, align 4
  %155 = load i8, ptr %14, align 1
  %156 = load i8, ptr %15, align 1
  %157 = load i8, ptr %16, align 1
  %158 = load i8, ptr %17, align 1
  %159 = call zeroext i1 @SDL_BlendPoint(ptr noundef %139, i32 noundef %146, i32 noundef %153, i32 noundef %154, i8 noundef zeroext %155, i8 noundef zeroext %156, i8 noundef zeroext %157, i8 noundef zeroext %158)
  br label %160

160:                                              ; preds = %138, %125
  store i1 true, ptr %9, align 1
  store i32 1, ptr %25, align 4
  br label %161

161:                                              ; preds = %160, %37, %28
  call void @llvm.lifetime.end.p0(i64 8, ptr %24) #3
  call void @llvm.lifetime.end.p0(i64 1, ptr %23) #3
  call void @llvm.lifetime.end.p0(i64 4, ptr %22) #3
  call void @llvm.lifetime.end.p0(i64 4, ptr %21) #3
  call void @llvm.lifetime.end.p0(i64 4, ptr %20) #3
  call void @llvm.lifetime.end.p0(i64 4, ptr %19) #3
  call void @llvm.lifetime.end.p0(i64 4, ptr %18) #3
  %162 = load i1, ptr %9, align 1
  ret i1 %162
}