; Function Attrs: nounwind uwtable
define hidden zeroext i1 @SDL_BlendLines(ptr noundef %0, ptr noundef readonly captures(none) %1, i32 noundef %2, i32 noundef %3, i8 noundef zeroext %4, i8 noundef zeroext %5, i8 noundef zeroext %6, i8 noundef zeroext %7) local_unnamed_addr #0 {
  %9 = alloca i32, align 4
  %10 = alloca i32, align 4
  %11 = alloca i32, align 4
  %12 = alloca i32, align 4
  call void @llvm.lifetime.start.p0(i64 4, ptr nonnull %9) #5
  call void @llvm.lifetime.start.p0(i64 4, ptr nonnull %10) #5
  call void @llvm.lifetime.start.p0(i64 4, ptr nonnull %11) #5
  call void @llvm.lifetime.start.p0(i64 4, ptr nonnull %12) #5
  %13 = tail call zeroext i1 @SDL_SurfaceValid(ptr noundef %0) #5
  br i1 %13, label %16, label %14

14:                                               ; preds = %8
  %15 = tail call zeroext i1 (ptr, ...) @SDL_SetError_REAL(ptr noundef nonnull @.str.3) #5
  br label %70

16:                                               ; preds = %8
  %17 = getelementptr inbounds nuw i8, ptr %0, i64 56
  %18 = load ptr, ptr %17, align 8
  %19 = getelementptr inbounds nuw i8, ptr %18, i64 5
  %20 = load i8, ptr %19, align 1
  switch i8 %20, label %34 [
    i8 2, label %21
    i8 4, label %24
  ]

21:                                               ; preds = %16
  %22 = getelementptr inbounds nuw i8, ptr %18, i64 8
  %23 = load i32, ptr %22, align 4
  %switch.selectcmp.i = icmp eq i32 %23, 63488
  %switch.select.i = select i1 %switch.selectcmp.i, ptr @SDL_BlendLine_RGB565, ptr @SDL_BlendLine_RGB2
  %switch.selectcmp9.i = icmp eq i32 %23, 31744
  %spec.select = select i1 %switch.selectcmp9.i, ptr @SDL_BlendLine_RGB555, ptr %switch.select.i
  br label %SDL_CalculateBlendLineFunc.exit

24:                                               ; preds = %16
  %25 = getelementptr inbounds nuw i8, ptr %18, i64 8
  %26 = load i32, ptr %25, align 4
  %27 = icmp eq i32 %26, 16711680
  %28 = getelementptr inbounds nuw i8, ptr %18, i64 20
  %29 = load i32, ptr %28, align 4
  %.not8.i = icmp eq i32 %29, 0
  br i1 %27, label %30, label %31

30:                                               ; preds = %24
  %SDL_BlendLine_XRGB8888.SDL_BlendLine_ARGB8888.i = select i1 %.not8.i, ptr @SDL_BlendLine_XRGB8888, ptr @SDL_BlendLine_ARGB8888
  br label %SDL_CalculateBlendLineFunc.exit

31:                                               ; preds = %24
  %SDL_BlendLine_RGB4.SDL_BlendLine_RGBA4.i = select i1 %.not8.i, ptr @SDL_BlendLine_RGB4, ptr @SDL_BlendLine_RGBA4
  br label %SDL_CalculateBlendLineFunc.exit

SDL_CalculateBlendLineFunc.exit:                  ; preds = %21, %30, %31
  %.0.i = phi ptr [ %SDL_BlendLine_XRGB8888.SDL_BlendLine_ARGB8888.i, %30 ], [ %SDL_BlendLine_RGB4.SDL_BlendLine_RGBA4.i, %31 ], [ %spec.select, %21 ]
  %32 = icmp sgt i32 %2, 1
  br i1 %32, label %.lr.ph, label %._crit_edge

.lr.ph:                                           ; preds = %SDL_CalculateBlendLineFunc.exit
  %33 = getelementptr inbounds nuw i8, ptr %0, i64 100
  %wide.trip.count = zext nneg i32 %2 to i64
  br label %36

34:                                               ; preds = %16
  %35 = tail call zeroext i1 (ptr, ...) @SDL_SetError_REAL(ptr noundef nonnull @.str.4) #5
  br label %70

36:                                               ; preds = %.lr.ph, %56
  %indvars.iv = phi i64 [ 1, %.lr.ph ], [ %indvars.iv.next, %56 ]
  %37 = getelementptr %struct.SDL_Point, ptr %1, i64 %indvars.iv
  %38 = getelementptr i8, ptr %37, i64 -8
  %39 = load i32, ptr %38, align 4
  store i32 %39, ptr %9, align 4
  %40 = getelementptr i8, ptr %37, i64 -4
  %41 = load i32, ptr %40, align 4
  store i32 %41, ptr %10, align 4
  %42 = load i32, ptr %37, align 4
  store i32 %42, ptr %11, align 4
  %43 = getelementptr inbounds nuw i8, ptr %37, i64 4
  %44 = load i32, ptr %43, align 4
  store i32 %44, ptr %12, align 4
  %45 = call zeroext i1 @SDL_GetRectAndLineIntersection_REAL(ptr noundef nonnull %33, ptr noundef nonnull %9, ptr noundef nonnull %10, ptr noundef nonnull %11, ptr noundef nonnull %12) #5
  br i1 %45, label %46, label %56

46:                                               ; preds = %36
  %47 = load i32, ptr %11, align 4
  %48 = load i32, ptr %37, align 4
  %.not48 = icmp eq i32 %47, %48
  %.pre = load i32, ptr %12, align 4
  br i1 %.not48, label %49, label %52

49:                                               ; preds = %46
  %50 = load i32, ptr %43, align 4
  %51 = icmp ne i32 %.pre, %50
  br label %52

52:                                               ; preds = %49, %46
  %53 = phi i1 [ true, %46 ], [ %51, %49 ]
  %54 = load i32, ptr %9, align 4
  %55 = load i32, ptr %10, align 4
  call void %.0.i(ptr noundef nonnull %0, i32 noundef %54, i32 noundef %55, i32 noundef %47, i32 noundef %.pre, i32 noundef %3, i8 noundef zeroext %4, i8 noundef zeroext %5, i8 noundef zeroext %6, i8 noundef zeroext %7, i1 noundef zeroext %53) #5
  br label %56

56:                                               ; preds = %36, %52
  %indvars.iv.next = add nuw nsw i64 %indvars.iv, 1
  %exitcond.not = icmp eq i64 %indvars.iv.next, %wide.trip.count
  br i1 %exitcond.not, label %._crit_edge, label %36, !llvm.loop !3

._crit_edge:                                      ; preds = %56, %SDL_CalculateBlendLineFunc.exit
  %57 = load i32, ptr %1, align 4
  %58 = sext i32 %2 to i64
  %59 = getelementptr %struct.SDL_Point, ptr %1, i64 %58
  %60 = getelementptr i8, ptr %59, i64 -8
  %61 = load i32, ptr %60, align 4
  %.not46 = icmp eq i32 %57, %61
  br i1 %.not46, label %62, label %._crit_edge._crit_edge

._crit_edge._crit_edge:                           ; preds = %._crit_edge
  %.phi.trans.insert = getelementptr i8, ptr %59, i64 -4
  %.pre53 = load i32, ptr %.phi.trans.insert, align 4
  br label %67

62:                                               ; preds = %._crit_edge
  %63 = getelementptr inbounds nuw i8, ptr %1, i64 4
  %64 = load i32, ptr %63, align 4
  %65 = getelementptr i8, ptr %59, i64 -4
  %66 = load i32, ptr %65, align 4
  %.not47 = icmp eq i32 %64, %66
  br i1 %.not47, label %70, label %67

67:                                               ; preds = %._crit_edge._crit_edge, %62
  %68 = phi i32 [ %.pre53, %._crit_edge._crit_edge ], [ %66, %62 ]
  %69 = call zeroext i1 @SDL_BlendPoint(ptr noundef nonnull %0, i32 noundef %61, i32 noundef %68, i32 noundef %3, i8 noundef zeroext %4, i8 noundef zeroext %5, i8 noundef zeroext %6, i8 noundef zeroext %7) #5
  br label %70

70:                                               ; preds = %62, %67, %34, %14
  %.0 = phi i1 [ %35, %34 ], [ %15, %14 ], [ true, %67 ], [ true, %62 ]
  call void @llvm.lifetime.end.p0(i64 4, ptr nonnull %12) #5
  call void @llvm.lifetime.end.p0(i64 4, ptr nonnull %11) #5
  call void @llvm.lifetime.end.p0(i64 4, ptr nonnull %10) #5
  call void @llvm.lifetime.end.p0(i64 4, ptr nonnull %9) #5
  ret i1 %.0
}